#include <math.h>
#include <stdio.h>
#include <stdlib.h>
#include <string.h>

int main(){
	int i,a;
	char b=32;
	char sz[10000],res[10000];
	gets(sz);
	a=strlen(sz);
	for(i=0;i<a;i++){
		if(sz[i]!=32){
			printf("%c",sz[i]);
		}else if(sz[i]==32&&sz[i-1]!=32){
			printf("%c",b);
		}
	}
	return 0;
}